target datalayout = "e-m:e-p270:32:32-p271:32:32-p272:64:64-i64:64-i128:128-f80:128-n8:16:32:64-S128"
target triple = "x86_64-pc-linux-gnu"

; Function Attrs: mustprogress nounwind uwtable
define void @_ZN4Cube17FactorCornerIndexEiRiS0_S0_(i32 noundef %0, ptr noundef nonnull align 4 dereferenceable(4) %1, ptr noundef nonnull align 4 dereferenceable(4) %2, ptr noundef nonnull align 4 dereferenceable(4) %3) #1 align 2 {
  %5 = alloca i32, align 4
  %6 = alloca ptr, align 8
  %7 = alloca ptr, align 8
  %8 = alloca ptr, align 8
  store i32 %0, ptr %5, align 4
  store ptr %1, ptr %6, align 8
  store ptr %2, ptr %7, align 8
  store ptr %3, ptr %8, align 8
  %9 = load i32, ptr %5, align 4
  %10 = ashr i32 %9, 0
  %11 = and i32 %10, 1
  %12 = load ptr, ptr %6, align 8
  store i32 %11, ptr %12, align 4
  %13 = load i32, ptr %5, align 4
  %14 = ashr i32 %13, 1
  %15 = and i32 %14, 1
  %16 = load ptr, ptr %7, align 8
  store i32 %15, ptr %16, align 4
  %17 = load i32, ptr %5, align 4
  %18 = ashr i32 %17, 2
  %19 = and i32 %18, 1
  %20 = load ptr, ptr %8, align 8
  store i32 %19, ptr %20, align 4
  ret void
}