; Function Attrs: mustprogress nofree norecurse nosync nounwind willreturn memory(argmem: write) uwtable
define void @_ZN4Cube17FactorCornerIndexEiRiS0_S0_(i32 noundef %0, ptr noundef nonnull writeonly align 4 captures(none) dereferenceable(4) initializes((0, 4)) %1, ptr noundef nonnull writeonly align 4 captures(none) dereferenceable(4) initializes((0, 4)) %2, ptr noundef nonnull writeonly align 4 captures(none) dereferenceable(4) initializes((0, 4)) %3) local_unnamed_addr #1 align 2 {
  %5 = and i32 %0, 1
  store i32 %5, ptr %1, align 4
  %6 = lshr i32 %0, 1
  %7 = and i32 %6, 1
  store i32 %7, ptr %2, align 4
  %8 = lshr i32 %0, 2
  %9 = and i32 %8, 1
  store i32 %9, ptr %3, align 4
  ret void
}